; Function Attrs: nounwind uwtable
define hidden i32 @mbedtls_psa_aead_encrypt_setup(ptr noundef %0, ptr noundef readonly captures(none) %1, ptr noundef %2, i64 noundef %3, i32 noundef %4) local_unnamed_addr #0 {
  %6 = tail call fastcc i32 @psa_aead_setup(ptr noundef %0, ptr noundef %1, ptr noundef %2, i32 noundef %4)
  %7 = icmp eq i32 %6, 0
  br i1 %7, label %8, label %12

8:                                                ; preds = %5
  %9 = getelementptr inbounds nuw i8, ptr %0, i64 6
  %10 = load i8, ptr %9, align 2
  %11 = or i8 %10, 1
  store i8 %11, ptr %9, align 2
  br label %12

12:                                               ; preds = %8, %5
  ret i32 %6
}